; Function Attrs: mustprogress nofree norecurse nosync nounwind willreturn memory(argmem: readwrite) uwtable
define internal noundef zeroext i1 @"_ZNSt17_Function_handlerIFvRN3nix4SinkEEZNS0_11RemoteStore12addCAToStoreERNS0_6SourceESt17basic_string_viewIcSt11char_traitsIcEENS0_20ContentAddressMethodENS0_13HashAlgorithmERKSt3setINS0_9StorePathESt4lessISE_ESaISE_EENS0_10RepairFlagEE3$_0E10_M_managerERSt9_Any_dataRKSO_St18_Manager_operation"(ptr nocapture noundef nonnull writeonly align 8 dereferenceable(16) %0, ptr noundef nonnull align 8 dereferenceable(16) %1, i32 noundef %2) #20 align 2 personality ptr @__gxx_personality_v0 {
  switch i32 %2, label %"_ZNSt14_Function_base13_Base_managerIZN3nix11RemoteStore12addCAToStoreERNS1_6SourceESt17basic_string_viewIcSt11char_traitsIcEENS1_20ContentAddressMethodENS1_13HashAlgorithmERKSt3setINS1_9StorePathESt4lessISC_ESaISC_EENS1_10RepairFlagEE3$_0E10_M_managerERSt9_Any_dataRKSM_St18_Manager_operation.exit" [
    i32 0, label %4
    i32 1, label %5
    i32 2, label %6
  ]

4:                                                ; preds = %3
  store ptr @"_ZTIZN3nix11RemoteStore12addCAToStoreERNS_6SourceESt17basic_string_viewIcSt11char_traitsIcEENS_20ContentAddressMethodENS_13HashAlgorithmERKSt3setINS_9StorePathESt4lessISA_ESaISA_EENS_10RepairFlagEE3$_0", ptr %0, align 8
  br label %"_ZNSt14_Function_base13_Base_managerIZN3nix11RemoteStore12addCAToStoreERNS1_6SourceESt17basic_string_viewIcSt11char_traitsIcEENS1_20ContentAddressMethodENS1_13HashAlgorithmERKSt3setINS1_9StorePathESt4lessISC_ESaISC_EENS1_10RepairFlagEE3$_0E10_M_managerERSt9_Any_dataRKSM_St18_Manager_operation.exit"

5:                                                ; preds = %3
  store ptr %1, ptr %0, align 8
  br label %"_ZNSt14_Function_base13_Base_managerIZN3nix11RemoteStore12addCAToStoreERNS1_6SourceESt17basic_string_viewIcSt11char_traitsIcEENS1_20ContentAddressMethodENS1_13HashAlgorithmERKSt3setINS1_9StorePathESt4lessISC_ESaISC_EENS1_10RepairFlagEE3$_0E10_M_managerERSt9_Any_dataRKSM_St18_Manager_operation.exit"

6:                                                ; preds = %3
  %.val.i = load i64, ptr %1, align 8
  store i64 %.val.i, ptr %0, align 8
  br label %"_ZNSt14_Function_base13_Base_managerIZN3nix11RemoteStore12addCAToStoreERNS1_6SourceESt17basic_string_viewIcSt11char_traitsIcEENS1_20ContentAddressMethodENS1_13HashAlgorithmERKSt3setINS1_9StorePathESt4lessISC_ESaISC_EENS1_10RepairFlagEE3$_0E10_M_managerERSt9_Any_dataRKSM_St18_Manager_operation.exit"

"_ZNSt14_Function_base13_Base_managerIZN3nix11RemoteStore12addCAToStoreERNS1_6SourceESt17basic_string_viewIcSt11char_traitsIcEENS1_20ContentAddressMethodENS1_13HashAlgorithmERKSt3setINS1_9StorePathESt4lessISC_ESaISC_EENS1_10RepairFlagEE3$_0E10_M_managerERSt9_Any_dataRKSM_St18_Manager_operation.exit": ; preds = %3, %6, %5, %4
  ret i1 false
}